target datalayout = "e-m:e-p270:32:32-p271:32:32-p272:64:64-i64:64-i128:128-f80:128-n8:16:32:64-S128"
target triple = "x86_64-pc-linux-gnu"

%struct._object = type { %union.anon, ptr }
%union.anon = type { i64 }
%struct.PyVarObject = type { %struct._object, i64 }
%struct.arrayiterobject = type { %struct._object, i64, ptr, ptr }

@_Py_NoneStruct = external global %struct._object, align 8

; Function Attrs: inlinehint nounwind uwtable
define internal i64 @Py_SIZE(ptr noundef %0) #3 {
  %2 = alloca ptr, align 8
  store ptr %0, ptr %2, align 8, !tbaa !3
  %3 = load ptr, ptr %2, align 8, !tbaa !3
  %4 = getelementptr inbounds nuw %struct.PyVarObject, ptr %3, i32 0, i32 1
  %5 = load i64, ptr %4, align 8, !tbaa !62
  ret i64 %5
}

; Function Attrs: nounwind uwtable
define internal ptr @array_arrayiterator___setstate__(ptr noundef %0, ptr noundef %1) #0 {
  %3 = alloca ptr, align 8
  %4 = alloca ptr, align 8
  %5 = alloca ptr, align 8
  %6 = alloca i64, align 8
  %7 = alloca i32, align 4
  %8 = alloca ptr, align 8
  store ptr %0, ptr %4, align 8, !tbaa !8
  store ptr %1, ptr %5, align 8, !tbaa !3
  call void @llvm.lifetime.start.p0(i64 8, ptr %6) #8
  %9 = load ptr, ptr %5, align 8, !tbaa !3
  %10 = call i64 @PyLong_AsSsize_t(ptr noundef %9)
  store i64 %10, ptr %6, align 8, !tbaa !21
  %11 = load i64, ptr %6, align 8, !tbaa !21
  %12 = icmp eq i64 %11, -1
  br i1 %12, label %13, label %17

13:                                               ; preds = %2
  %14 = call ptr @PyErr_Occurred()
  %15 = icmp ne ptr %14, null
  br i1 %15, label %16, label %17

16:                                               ; preds = %13
  store ptr null, ptr %3, align 8
  store i32 1, ptr %7, align 4
  br label %41

17:                                               ; preds = %13, %2
  call void @llvm.lifetime.start.p0(i64 8, ptr %8) #8
  %18 = load ptr, ptr %4, align 8, !tbaa !8
  %19 = getelementptr inbounds nuw %struct.arrayiterobject, ptr %18, i32 0, i32 2
  %20 = load ptr, ptr %19, align 8, !tbaa !121
  store ptr %20, ptr %8, align 8, !tbaa !68
  %21 = load ptr, ptr %8, align 8, !tbaa !68
  %22 = icmp ne ptr %21, null
  br i1 %22, label %23, label %40

23:                                               ; preds = %17
  %24 = load i64, ptr %6, align 8, !tbaa !21
  %25 = icmp slt i64 %24, 0
  br i1 %25, label %26, label %27

26:                                               ; preds = %23
  store i64 0, ptr %6, align 8, !tbaa !21
  br label %36

27:                                               ; preds = %23
  %28 = load i64, ptr %6, align 8, !tbaa !21
  %29 = load ptr, ptr %8, align 8, !tbaa !68
  %30 = call i64 @Py_SIZE(ptr noundef %29)
  %31 = icmp sgt i64 %28, %30
  br i1 %31, label %32, label %35

32:                                               ; preds = %27
  %33 = load ptr, ptr %8, align 8, !tbaa !68
  %34 = call i64 @Py_SIZE(ptr noundef %33)
  store i64 %34, ptr %6, align 8, !tbaa !21
  br label %35

35:                                               ; preds = %32, %27
  br label %36

36:                                               ; preds = %35, %26
  %37 = load i64, ptr %6, align 8, !tbaa !21
  %38 = load ptr, ptr %4, align 8, !tbaa !8
  %39 = getelementptr inbounds nuw %struct.arrayiterobject, ptr %38, i32 0, i32 1
  store i64 %37, ptr %39, align 8, !tbaa !123
  br label %40

40:                                               ; preds = %36, %17
  store ptr @_Py_NoneStruct, ptr %3, align 8
  store i32 1, ptr %7, align 4
  call void @llvm.lifetime.end.p0(i64 8, ptr %8) #8
  br label %41

41:                                               ; preds = %40, %16
  call void @llvm.lifetime.end.p0(i64 8, ptr %6) #8
  %42 = load ptr, ptr %3, align 8
  ret ptr %42
}